target datalayout = "e-m:e-p270:32:32-p271:32:32-p272:64:64-i64:64-i128:128-f80:128-n8:16:32:64-S128"
target triple = "x86_64-pc-linux-gnu"

; Function Attrs: nounwind uwtable
define void @dt2time(double noundef %0, ptr noundef %1, ptr noundef %2, ptr noundef %3, ptr noundef %4) #0 {
  %6 = alloca double, align 8
  %7 = alloca ptr, align 8
  %8 = alloca ptr, align 8
  %9 = alloca ptr, align 8
  %10 = alloca ptr, align 8
  %11 = alloca i64, align 8
  store double %0, ptr %6, align 8
  store ptr %1, ptr %7, align 8
  store ptr %2, ptr %8, align 8
  store ptr %3, ptr %9, align 8
  store ptr %4, ptr %10, align 8
  call void @llvm.lifetime.start.p0(i64 8, ptr %11) #9
  %12 = load double, ptr %6, align 8
  %13 = fptosi double %12 to i64
  store i64 %13, ptr %11, align 8
  %14 = load i64, ptr %11, align 8
  %15 = sdiv i64 %14, 3600000000
  %16 = trunc i64 %15 to i32
  %17 = load ptr, ptr %7, align 8
  store i32 %16, ptr %17, align 4
  %18 = load ptr, ptr %7, align 8
  %19 = load i32, ptr %18, align 4
  %20 = sext i32 %19 to i64
  %21 = mul i64 %20, 3600000000
  %22 = load i64, ptr %11, align 8
  %23 = sub i64 %22, %21
  store i64 %23, ptr %11, align 8
  %24 = load i64, ptr %11, align 8
  %25 = sdiv i64 %24, 60000000
  %26 = trunc i64 %25 to i32
  %27 = load ptr, ptr %8, align 8
  store i32 %26, ptr %27, align 4
  %28 = load ptr, ptr %8, align 8
  %29 = load i32, ptr %28, align 4
  %30 = sext i32 %29 to i64
  %31 = mul i64 %30, 60000000
  %32 = load i64, ptr %11, align 8
  %33 = sub i64 %32, %31
  store i64 %33, ptr %11, align 8
  %34 = load i64, ptr %11, align 8
  %35 = sdiv i64 %34, 1000000
  %36 = trunc i64 %35 to i32
  %37 = load ptr, ptr %9, align 8
  store i32 %36, ptr %37, align 4
  %38 = load i64, ptr %11, align 8
  %39 = load ptr, ptr %9, align 8
  %40 = load i32, ptr %39, align 4
  %41 = sext i32 %40 to i64
  %42 = mul i64 %41, 1000000
  %43 = sub i64 %38, %42
  %44 = trunc i64 %43 to i32
  %45 = load ptr, ptr %10, align 8
  store i32 %44, ptr %45, align 4
  call void @llvm.lifetime.end.p0(i64 8, ptr %11) #9
  ret void
}