; Function Attrs: mustprogress nofree norecurse nosync nounwind willreturn memory(argmem: write) uwtable
define void @dt2time(double noundef %0, ptr noundef writeonly captures(none) initializes((0, 4)) %1, ptr noundef writeonly captures(none) initializes((0, 4)) %2, ptr noundef writeonly captures(none) initializes((0, 4)) %3, ptr noundef writeonly captures(none) initializes((0, 4)) %4) local_unnamed_addr #4 {
  %6 = fptosi double %0 to i64
  %7 = sdiv i64 %6, 3600000000
  %8 = trunc i64 %7 to i32
  store i32 %8, ptr %1, align 4
  %sext = shl i64 %7, 32
  %9 = ashr exact i64 %sext, 32
  %.neg = mul nsw i64 %9, -3600000000
  %10 = add i64 %.neg, %6
  %11 = sdiv i64 %10, 60000000
  %12 = trunc i64 %11 to i32
  store i32 %12, ptr %2, align 4
  %sext13 = shl i64 %11, 32
  %13 = ashr exact i64 %sext13, 32
  %.neg14 = mul nsw i64 %13, -60000000
  %14 = add i64 %.neg14, %10
  %15 = sdiv i64 %14, 1000000
  %16 = trunc i64 %15 to i32
  store i32 %16, ptr %3, align 4
  %.neg16 = mul i64 %15, 4293967296
  %17 = add i64 %.neg16, %14
  %18 = trunc i64 %17 to i32
  store i32 %18, ptr %4, align 4
  ret void
}